target datalayout = "e-m:e-p270:32:32-p271:32:32-p272:64:64-i64:64-i128:128-f80:128-n8:16:32:64-S128"
target triple = "x86_64-pc-linux-gnu"

@hf_ipmi_se_2a_session_deactivated_by = internal global i32 0, align 4
@hf_ipmi_se_2a_channel = internal global i32 0, align 4
@ett_ipmi_se_evt_evd_byte3 = internal global i32 0, align 4
@.str.1023 = private unnamed_addr constant [29 x i8] c"Deactivation cause/Channel #\00", align 1

; Function Attrs: null_pointer_is_valid sspstrong uwtable
define internal zeroext i1 @ssi_2a_3(ptr noundef %0, ptr noundef %1, ptr noundef %2, i32 noundef %3, i32 noundef %4, i32 noundef %5) #0 {
  %7 = alloca i1, align 1
  %8 = alloca ptr, align 8
  %9 = alloca ptr, align 8
  %10 = alloca ptr, align 8
  %11 = alloca i32, align 4
  %12 = alloca i32, align 4
  %13 = alloca i32, align 4
  %14 = alloca ptr, align 8
  %15 = alloca i32, align 4
  store ptr %0, ptr %8, align 8
  store ptr %1, ptr %9, align 8
  store ptr %2, ptr %10, align 8
  store i32 %3, ptr %11, align 4
  store i32 %4, ptr %12, align 4
  store i32 %5, ptr %13, align 4
  call void @llvm.lifetime.start.p0(i64 8, ptr %14) #5
  %16 = load i32, ptr %11, align 4
  %17 = icmp eq i32 %16, 3
  br i1 %17, label %18, label %31

18:                                               ; preds = %6
  %19 = load ptr, ptr %8, align 8
  %20 = load ptr, ptr %9, align 8
  %21 = load i32, ptr @ett_ipmi_se_evt_evd_byte3, align 4
  %22 = call ptr @proto_tree_add_subtree(ptr noundef %19, ptr noundef %20, i32 noundef 0, i32 noundef 1, i32 noundef %21, ptr noundef null, ptr noundef @.str.1023)
  store ptr %22, ptr %14, align 8
  %23 = load ptr, ptr %14, align 8
  %24 = load i32, ptr @hf_ipmi_se_2a_session_deactivated_by, align 4
  %25 = load ptr, ptr %9, align 8
  %26 = call ptr @proto_tree_add_item(ptr noundef %23, i32 noundef %24, ptr noundef %25, i32 noundef 0, i32 noundef 1, i32 noundef -2147483648)
  %27 = load ptr, ptr %14, align 8
  %28 = load i32, ptr @hf_ipmi_se_2a_channel, align 4
  %29 = load ptr, ptr %9, align 8
  %30 = call ptr @proto_tree_add_item(ptr noundef %27, i32 noundef %28, ptr noundef %29, i32 noundef 0, i32 noundef 1, i32 noundef -2147483648)
  store i1 true, ptr %7, align 1
  store i32 1, ptr %15, align 4
  br label %32

31:                                               ; preds = %6
  store i1 false, ptr %7, align 1
  store i32 1, ptr %15, align 4
  br label %32

32:                                               ; preds = %31, %18
  call void @llvm.lifetime.end.p0(i64 8, ptr %14) #5
  %33 = load i1, ptr %7, align 1
  ret i1 %33
}